target datalayout = "e-m:e-p270:32:32-p271:32:32-p272:64:64-i64:64-i128:128-f80:128-n8:16:32:64-S128"
target triple = "x86_64-pc-linux-gnu"

%struct.blf_params = type { ptr, ptr, ptr, i8, i8, ptr }
%struct.wtap_rec = type { i32, i32, i32, %struct.nstime_t, i32, %struct.nstime_t, i8, %union.anon, ptr, i8, %struct.Buffer, %struct.Buffer }
%struct.nstime_t = type { i64, i32 }
%union.anon = type { %struct.wtap_packet_header }
%struct.wtap_packet_header = type { i32, i32, i32, i32, %union.wtap_pseudo_header }
%union.wtap_pseudo_header = type { %struct.erf_mc_phdr }
%struct.erf_mc_phdr = type { %struct.erf_phdr, [16 x %struct.erf_ehdr], %union.anon.1 }
%struct.erf_phdr = type { i64, i8, i8, i16, i16, i16 }
%struct.erf_ehdr = type { i64 }
%union.anon.1 = type { i32 }
%struct.Buffer = type { ptr, i64, i64, i64 }
%struct.blf_canerror = type { i16, i16 }

@.str.60 = private unnamed_addr constant [63 x i8] c"blf: CAN_ERROR: not enough bytes for canerror header in object\00", align 1

; Function Attrs: nounwind null_pointer_is_valid sspstrong uwtable
define internal void @fix_endianness_blf_canerror(ptr noundef %0) #0 {
  %2 = alloca ptr, align 8
  store ptr %0, ptr %2, align 8
  %3 = load ptr, ptr %2, align 8
  %4 = getelementptr inbounds nuw %struct.blf_canerror, ptr %3, i32 0, i32 0
  %5 = load i16, ptr %4, align 2
  %6 = load ptr, ptr %2, align 8
  %7 = getelementptr inbounds nuw %struct.blf_canerror, ptr %6, i32 0, i32 0
  store i16 %5, ptr %7, align 2
  %8 = load ptr, ptr %2, align 8
  %9 = getelementptr inbounds nuw %struct.blf_canerror, ptr %8, i32 0, i32 1
  %10 = load i16, ptr %9, align 2
  %11 = load ptr, ptr %2, align 8
  %12 = getelementptr inbounds nuw %struct.blf_canerror, ptr %11, i32 0, i32 1
  store i16 %10, ptr %12, align 2
  ret void
}

; Function Attrs: null_pointer_is_valid sspstrong uwtable
define internal zeroext i1 @blf_read_bytes(ptr noundef %0, i64 noundef %1, ptr noundef %2, i64 noundef %3, ptr noundef %4, ptr noundef %5) #2 {
  %7 = alloca i1, align 1
  %8 = alloca ptr, align 8
  %9 = alloca i64, align 8
  %10 = alloca ptr, align 8
  %11 = alloca i64, align 8
  %12 = alloca ptr, align 8
  %13 = alloca ptr, align 8
  store ptr %0, ptr %8, align 8
  store i64 %1, ptr %9, align 8
  store ptr %2, ptr %10, align 8
  store i64 %3, ptr %11, align 8
  store ptr %4, ptr %12, align 8
  store ptr %5, ptr %13, align 8
  %14 = load ptr, ptr %8, align 8
  %15 = load i64, ptr %9, align 8
  %16 = load ptr, ptr %10, align 8
  %17 = load i64, ptr %11, align 8
  %18 = load ptr, ptr %12, align 8
  %19 = load ptr, ptr %13, align 8
  %20 = call zeroext i1 @blf_read_bytes_or_eof(ptr noundef %14, i64 noundef %15, ptr noundef %16, i64 noundef %17, ptr noundef %18, ptr noundef %19)
  br i1 %20, label %28, label %21

21:                                               ; preds = %6
  %22 = load ptr, ptr %12, align 8
  %23 = load i32, ptr %22, align 4
  %24 = icmp eq i32 %23, 0
  br i1 %24, label %25, label %27

25:                                               ; preds = %21
  %26 = load ptr, ptr %12, align 8
  store i32 -12, ptr %26, align 4
  br label %27

27:                                               ; preds = %25, %21
  store i1 false, ptr %7, align 1
  br label %29

28:                                               ; preds = %6
  store i1 true, ptr %7, align 1
  br label %29

29:                                               ; preds = %28, %27
  %30 = load i1, ptr %7, align 1
  ret i1 %30
}

; Function Attrs: null_pointer_is_valid sspstrong uwtable
define internal zeroext i1 @blf_read_canerror(ptr noundef %0, ptr noundef %1, ptr noundef %2, i64 noundef %3, i64 noundef %4, i64 noundef %5, i32 noundef %6, i64 noundef %7, i1 noundef zeroext %8) #2 {
  %10 = alloca i1, align 1
  %11 = alloca ptr, align 8
  %12 = alloca ptr, align 8
  %13 = alloca ptr, align 8
  %14 = alloca i64, align 8
  %15 = alloca i64, align 8
  %16 = alloca i64, align 8
  %17 = alloca i32, align 4
  %18 = alloca i64, align 8
  %19 = alloca i8, align 1
  %20 = alloca %struct.blf_canerror, align 2
  %21 = alloca i32, align 4
  %22 = alloca i8, align 1
  %23 = alloca [16 x i8], align 16
  %24 = alloca i32, align 4
  store ptr %0, ptr %11, align 8
  store ptr %1, ptr %12, align 8
  store ptr %2, ptr %13, align 8
  store i64 %3, ptr %14, align 8
  store i64 %4, ptr %15, align 8
  store i64 %5, ptr %16, align 8
  store i32 %6, ptr %17, align 4
  store i64 %7, ptr %18, align 8
  %25 = zext i1 %8 to i8
  store i8 %25, ptr %19, align 1
  call void @llvm.lifetime.start.p0(i64 4, ptr %20) #13
  call void @llvm.lifetime.start.p0(i64 4, ptr %21) #13
  call void @llvm.lifetime.start.p0(i64 1, ptr %22) #13
  call void @llvm.lifetime.start.p0(i64 16, ptr %23) #13
  call void @llvm.memset.p0.i64(ptr align 16 %23, i8 0, i64 16, i1 false)
  %26 = load i64, ptr %16, align 8
  %27 = load i64, ptr %15, align 8
  %28 = load i64, ptr %14, align 8
  %29 = sub i64 %27, %28
  %30 = add i64 %29, 4
  %31 = icmp slt i64 %26, %30
  br i1 %31, label %32, label %39

32:                                               ; preds = %9
  %33 = load ptr, ptr %12, align 8
  store i32 -13, ptr %33, align 4
  %34 = call noalias ptr @wmem_strdup(ptr noundef null, ptr noundef @.str.60)
  %35 = load ptr, ptr %13, align 8
  store ptr %34, ptr %35, align 8
  br label %36

36:                                               ; preds = %32
  br label %37

37:                                               ; preds = %36
  br label %38

38:                                               ; preds = %37
  store i1 false, ptr %10, align 1
  store i32 1, ptr %24, align 4
  br label %88

39:                                               ; preds = %9
  %40 = load ptr, ptr %11, align 8
  %41 = load i64, ptr %15, align 8
  %42 = load ptr, ptr %12, align 8
  %43 = load ptr, ptr %13, align 8
  %44 = call zeroext i1 @blf_read_bytes(ptr noundef %40, i64 noundef %41, ptr noundef %20, i64 noundef 4, ptr noundef %42, ptr noundef %43)
  br i1 %44, label %49, label %45

45:                                               ; preds = %39
  br label %46

46:                                               ; preds = %45
  br label %47

47:                                               ; preds = %46
  br label %48

48:                                               ; preds = %47
  store i1 false, ptr %10, align 1
  store i32 1, ptr %24, align 4
  br label %88

49:                                               ; preds = %39
  call void @fix_endianness_blf_canerror(ptr noundef %20)
  store i32 536870912, ptr %21, align 4
  store i8 8, ptr %22, align 1
  %50 = load i8, ptr %19, align 1, !range !8, !noundef !9
  %51 = trunc i8 %50 to i1
  br i1 %51, label %52, label %56

52:                                               ; preds = %49
  %53 = getelementptr [16 x i8], ptr %23, i64 0, i64 10
  store i8 32, ptr %53, align 2
  %54 = load i32, ptr %21, align 4
  %55 = or i32 %54, 8
  store i32 %55, ptr %21, align 4
  br label %56

56:                                               ; preds = %52, %49
  %57 = load i32, ptr %21, align 4
  %58 = and i32 %57, -16777216
  %59 = lshr i32 %58, 24
  %60 = trunc i32 %59 to i8
  %61 = getelementptr [16 x i8], ptr %23, i64 0, i64 0
  store i8 %60, ptr %61, align 16
  %62 = load i32, ptr %21, align 4
  %63 = and i32 %62, 16711680
  %64 = lshr i32 %63, 16
  %65 = trunc i32 %64 to i8
  %66 = getelementptr [16 x i8], ptr %23, i64 0, i64 1
  store i8 %65, ptr %66, align 1
  %67 = load i32, ptr %21, align 4
  %68 = and i32 %67, 65280
  %69 = lshr i32 %68, 8
  %70 = trunc i32 %69 to i8
  %71 = getelementptr [16 x i8], ptr %23, i64 0, i64 2
  store i8 %70, ptr %71, align 2
  %72 = load i32, ptr %21, align 4
  %73 = and i32 %72, 255
  %74 = trunc i32 %73 to i8
  %75 = getelementptr [16 x i8], ptr %23, i64 0, i64 3
  store i8 %74, ptr %75, align 1
  %76 = load i8, ptr %22, align 1
  %77 = getelementptr [16 x i8], ptr %23, i64 0, i64 4
  store i8 %76, ptr %77, align 4
  %78 = load ptr, ptr %11, align 8
  %79 = getelementptr inbounds nuw %struct.blf_params, ptr %78, i32 0, i32 1
  %80 = load ptr, ptr %79, align 8
  %81 = getelementptr inbounds nuw %struct.wtap_rec, ptr %80, i32 0, i32 11
  %82 = getelementptr inbounds [16 x i8], ptr %23, i64 0, i64 0
  call void @ws_buffer_append(ptr noundef %81, ptr noundef %82, i64 noundef 16)
  %83 = load ptr, ptr %11, align 8
  %84 = load i32, ptr %17, align 4
  %85 = load i64, ptr %18, align 8
  %86 = getelementptr inbounds nuw %struct.blf_canerror, ptr %20, i32 0, i32 0
  %87 = load i16, ptr %86, align 2
  call void @blf_init_rec(ptr noundef %83, i32 noundef %84, i64 noundef %85, i32 noundef 125, i16 noundef zeroext %87, i16 noundef zeroext -1, i32 noundef 16, i32 noundef 16)
  store i1 true, ptr %10, align 1
  store i32 1, ptr %24, align 4
  br label %88

88:                                               ; preds = %56, %48, %38
  call void @llvm.lifetime.end.p0(i64 16, ptr %23) #13
  call void @llvm.lifetime.end.p0(i64 1, ptr %22) #13
  call void @llvm.lifetime.end.p0(i64 4, ptr %21) #13
  call void @llvm.lifetime.end.p0(i64 4, ptr %20) #13
  %89 = load i1, ptr %10, align 1
  ret i1 %89
}