; Function Attrs: null_pointer_is_valid sspstrong uwtable
define internal fastcc noundef zeroext i1 @blf_read_canerror(ptr noundef readonly captures(none) %0, ptr noundef %1, ptr noundef %2, i64 noundef %3, i64 noundef %4, i64 noundef range(i64 0, 4294967296) %5, i32 noundef %6, i64 noundef %7, i1 noundef zeroext %8) unnamed_addr #2 {
  %10 = alloca %struct.blf_canerror, align 2
  %11 = alloca [16 x i8], align 16
  call void @llvm.lifetime.start.p0(i64 4, ptr nonnull %10) #14
  call void @llvm.lifetime.start.p0(i64 16, ptr nonnull %11) #14
  call void @llvm.memset.p0.i64(ptr noundef nonnull align 16 dereferenceable(16) %11, i8 0, i64 16, i1 false)
  %reass.sub = sub i64 %4, %3
  %12 = add i64 %reass.sub, 4
  %13 = icmp slt i64 %5, %12
  br i1 %13, label %14, label %16

14:                                               ; preds = %9
  store i32 -13, ptr %1, align 4
  %15 = tail call noalias ptr @wmem_strdup(ptr noundef null, ptr noundef nonnull @.str.60)
  store ptr %15, ptr %2, align 8
  br label %blf_read_bytes.exit.thread

16:                                               ; preds = %9
  %17 = call fastcc zeroext i1 @blf_read_bytes_or_eof(ptr noundef readonly %0, i64 noundef %4, ptr noundef nonnull %10, i64 noundef 4, ptr noundef %1, ptr noundef %2)
  br i1 %17, label %blf_read_bytes.exit, label %18

18:                                               ; preds = %16
  %19 = load i32, ptr %1, align 4
  %20 = icmp eq i32 %19, 0
  br i1 %20, label %21, label %blf_read_bytes.exit.thread

21:                                               ; preds = %18
  store i32 -12, ptr %1, align 4
  br label %blf_read_bytes.exit.thread

blf_read_bytes.exit:                              ; preds = %16
  br i1 %8, label %22, label %24

22:                                               ; preds = %blf_read_bytes.exit
  %23 = getelementptr inbounds nuw i8, ptr %11, i64 10
  store i8 32, ptr %23, align 2
  br label %24

24:                                               ; preds = %22, %blf_read_bytes.exit
  %.020 = phi i8 [ 8, %22 ], [ 0, %blf_read_bytes.exit ]
  store i8 32, ptr %11, align 16
  %25 = getelementptr inbounds nuw i8, ptr %11, i64 1
  store i8 0, ptr %25, align 1
  %26 = getelementptr inbounds nuw i8, ptr %11, i64 2
  store i8 0, ptr %26, align 2
  %27 = getelementptr inbounds nuw i8, ptr %11, i64 3
  store i8 %.020, ptr %27, align 1
  %28 = getelementptr inbounds nuw i8, ptr %11, i64 4
  store i8 8, ptr %28, align 4
  %29 = getelementptr inbounds nuw i8, ptr %0, i64 8
  %30 = load ptr, ptr %29, align 8
  %31 = getelementptr inbounds nuw i8, ptr %30, i64 280
  call void @ws_buffer_append(ptr noundef nonnull %31, ptr noundef nonnull %11, i64 noundef 16)
  %32 = load i16, ptr %10, align 2
  call fastcc void @blf_init_rec(ptr noundef %0, i32 noundef %6, i64 noundef %7, i32 noundef 125, i16 noundef zeroext %32, i16 noundef zeroext -1, i32 noundef 16, i32 noundef 16)
  br label %blf_read_bytes.exit.thread

blf_read_bytes.exit.thread:                       ; preds = %21, %18, %24, %14
  %.0 = phi i1 [ false, %14 ], [ true, %24 ], [ false, %18 ], [ false, %21 ]
  call void @llvm.lifetime.end.p0(i64 16, ptr nonnull %11) #14
  call void @llvm.lifetime.end.p0(i64 4, ptr nonnull %10) #14
  ret i1 %.0
}